target datalayout = "e-m:e-p270:32:32-p271:32:32-p272:64:64-i64:64-i128:128-f80:128-n8:16:32:64-S128"
target triple = "x86_64-pc-linux-gnu"

%struct.timespec = type { i64, i64 }

@H5_init_g = external global i8, align 1
@H5_libterm_g = external global i8, align 1

; Function Attrs: nounwind uwtable
define double @H5_get_time() #0 {
  %1 = alloca double, align 8
  %2 = alloca %struct.timespec, align 8
  call void @llvm.lifetime.start.p0(i64 8, ptr %1) #8
  store double 0.000000e+00, ptr %1, align 8, !tbaa !10
  %3 = load i8, ptr @H5_init_g, align 1, !tbaa !17, !range !19, !noundef !20
  %4 = trunc i8 %3 to i1
  br i1 %4, label %9, label %5

5:                                                ; preds = %0
  %6 = load i8, ptr @H5_libterm_g, align 1, !tbaa !17, !range !19, !noundef !20
  %7 = trunc i8 %6 to i1
  %8 = xor i1 %7, true
  br label %9

9:                                                ; preds = %5, %0
  %10 = phi i1 [ true, %0 ], [ %8, %5 ]
  %11 = xor i1 %10, true
  %12 = xor i1 %11, true
  %13 = zext i1 %12 to i32
  %14 = sext i32 %13 to i64
  %15 = call i64 @llvm.expect.i64(i64 %14, i64 1)
  %16 = icmp ne i64 %15, 0
  br i1 %16, label %17, label %27

17:                                               ; preds = %9
  call void @llvm.lifetime.start.p0(i64 16, ptr %2) #8
  %18 = call i32 @clock_gettime(i32 noundef 1, ptr noundef %2) #8
  %19 = getelementptr inbounds nuw %struct.timespec, ptr %2, i32 0, i32 0
  %20 = load i64, ptr %19, align 8, !tbaa !14
  %21 = sitofp i64 %20 to double
  %22 = getelementptr inbounds nuw %struct.timespec, ptr %2, i32 0, i32 1
  %23 = load i64, ptr %22, align 8, !tbaa !16
  %24 = sitofp i64 %23 to double
  %25 = fdiv double %24, 1.000000e+09
  %26 = fadd double %21, %25
  store double %26, ptr %1, align 8, !tbaa !10
  call void @llvm.lifetime.end.p0(i64 16, ptr %2) #8
  br label %27

27:                                               ; preds = %17, %9
  %28 = load double, ptr %1, align 8, !tbaa !10
  call void @llvm.lifetime.end.p0(i64 8, ptr %1) #8
  ret double %28
}