; Function Attrs: nounwind uwtable
define double @H5_get_time() local_unnamed_addr #5 {
  %1 = alloca %struct.timespec, align 8
  %2 = load i8, ptr @H5_init_g, align 1, !tbaa !11, !range !13, !noundef !14
  %3 = trunc nuw i8 %2 to i1
  %4 = load i8, ptr @H5_libterm_g, align 1, !range !13
  %5 = trunc nuw i8 %4 to i1
  %6 = xor i1 %5, true
  %7 = select i1 %3, i1 true, i1 %6
  br i1 %7, label %8, label %17, !prof !15

8:                                                ; preds = %0
  call void @llvm.lifetime.start.p0(i64 16, ptr nonnull %1) #11
  %9 = call i32 @clock_gettime(i32 noundef 1, ptr noundef nonnull %1) #11
  %10 = load i64, ptr %1, align 8, !tbaa !8
  %11 = sitofp i64 %10 to double
  %12 = getelementptr inbounds nuw i8, ptr %1, i64 8
  %13 = load i64, ptr %12, align 8, !tbaa !10
  %14 = sitofp i64 %13 to double
  %15 = fdiv double %14, 1.000000e+09
  %16 = fadd double %15, %11
  call void @llvm.lifetime.end.p0(i64 16, ptr nonnull %1) #11
  br label %17

17:                                               ; preds = %8, %0
  %.0 = phi double [ %16, %8 ], [ 0.000000e+00, %0 ]
  ret double %.0
}